(lp0
(i__main__
Persona
p1
(dp2
S'edad'
p3
I16
sS'nombre'
p4
S'Sandra'
p5
sS'genero'
p6
S'Femenino'
p7
sba(i__main__
Persona
p8
(dp9
g3
I49
sg4
S'Antonio'
p10
sg6
S'Masculino'
p11
sba(i__main__
Persona
p12
(dp13
g3
I19
sg4
S'Ana'
p14
sg6
S'Femenino'
p15
sba.