(lp0
(i__main__
Vehiculo
p1
(dp2
S'acelera'
p3
I00
sS'enmarcha'
p4
I00
sS'modelo'
p5
S'500'
p6
sS'marca'
p7
S'Fiat'
p8
sS'frena'
p9
I00
sba(i__main__
Vehiculo
p10
(dp11
g3
I00
sg4
I00
sg5
S'srga'
p12
sg7
S'Seat'
p13
sg9
I00
sba(i__main__
Vehiculo
p14
(dp15
g3
I00
sg4
I00
sg5
S'sd3'
p16
sg7
S'Renaut'
p17
sg9
I00
sba.